target datalayout = "e-m:e-p270:32:32-p271:32:32-p272:64:64-i64:64-i128:128-f80:128-n8:16:32:64-S128"
target triple = "x86_64-pc-linux-gnu"

%class.DCmdWithParser = type { %class.DCmd.base, %class.DCmdParser }
%class.DCmd.base = type <{ ptr, ptr, i8 }>
%class.DCmdParser = type { ptr, ptr }
%class.DCmdArgument = type { %class.GenDCmdArgument.base, i8, [4 x i8] }
%class.GenDCmdArgument.base = type <{ ptr, ptr, ptr, ptr, ptr, ptr, i8, i8, i8 }>
%class.DCmdArgument.96 = type { %class.GenDCmdArgument.base, ptr }
%class.ThreadShadow = type <{ ptr, ptr, ptr, i32, [4 x i8] }>
%class.ThreadDumpToFileDCmd = type { %class.DCmdWithParser, %class.DCmdArgument, %class.DCmdArgument.96, %class.DCmdArgument.96 }

@.str.163 = private unnamed_addr constant [5 x i8] c"json\00", align 1
@_ZN6Symbol11_vm_symbolsE = external global [0 x ptr], align 8

; Function Attrs: mustprogress nounwind uwtable
define linkonce_odr hidden noundef zeroext i1 @_ZNK12ThreadShadow21has_pending_exceptionEv(ptr noundef nonnull align 8 dereferenceable(28) %0) #1 comdat align 2 {
  %2 = alloca ptr, align 8
  store ptr %0, ptr %2, align 8
  %3 = load ptr, ptr %2, align 8
  %4 = getelementptr inbounds %class.ThreadShadow, ptr %3, i32 0, i32 1
  %5 = load ptr, ptr %4, align 8
  %6 = icmp ne ptr %5, null
  ret i1 %6
}

; Function Attrs: mustprogress nounwind uwtable
define linkonce_odr hidden noundef ptr @_ZN9vmSymbols32string_bool_byte_array_signatureEv() #1 comdat align 2 {
  %1 = load ptr, ptr getelementptr inbounds ([0 x ptr], ptr @_ZN6Symbol11_vm_symbolsE, i64 0, i64 893), align 8
  ret ptr %1
}

; Function Attrs: mustprogress nounwind uwtable
define linkonce_odr hidden noundef ptr @_ZN9vmSymbols16dumpThreads_nameEv() #1 comdat align 2 {
  %1 = load ptr, ptr getelementptr inbounds ([0 x ptr], ptr @_ZN6Symbol11_vm_symbolsE, i64 0, i64 1168), align 8
  ret ptr %1
}

; Function Attrs: mustprogress nounwind uwtable
define linkonce_odr hidden noundef ptr @_ZN9vmSymbols22dumpThreadsToJson_nameEv() #1 comdat align 2 {
  %1 = load ptr, ptr getelementptr inbounds ([0 x ptr], ptr @_ZN6Symbol11_vm_symbolsE, i64 0, i64 1169), align 8
  ret ptr %1
}

; Function Attrs: mustprogress nounwind uwtable
define linkonce_odr hidden noundef zeroext i1 @_ZNK12DCmdArgumentIbE5valueEv(ptr noundef nonnull align 8 dereferenceable(52) %0) #1 comdat align 2 {
  %2 = alloca ptr, align 8
  store ptr %0, ptr %2, align 8
  %3 = load ptr, ptr %2, align 8
  %4 = getelementptr inbounds %class.DCmdArgument, ptr %3, i32 0, i32 1
  %5 = load i8, ptr %4, align 1
  %6 = trunc i8 %5 to i1
  ret i1 %6
}

; Function Attrs: mustprogress nounwind uwtable
define linkonce_odr hidden noundef ptr @_ZNK12DCmdArgumentIPcE5valueEv(ptr noundef nonnull align 8 dereferenceable(64) %0) #1 comdat align 2 {
  %2 = alloca ptr, align 8
  store ptr %0, ptr %2, align 8
  %3 = load ptr, ptr %2, align 8
  %4 = getelementptr inbounds %class.DCmdArgument.96, ptr %3, i32 0, i32 1
  %5 = load ptr, ptr %4, align 8
  ret ptr %5
}

; Function Attrs: mustprogress nounwind uwtable
define hidden void @_ZN20ThreadDumpToFileDCmd7executeE10DCmdSourceP10JavaThread(ptr noundef nonnull align 8 dereferenceable(224) %0, i32 noundef %1, ptr noundef %2) unnamed_addr #1 align 2 {
  %4 = alloca ptr, align 8
  %5 = alloca i32, align 4
  %6 = alloca ptr, align 8
  %7 = alloca i8, align 1
  %8 = alloca ptr, align 8
  %9 = alloca i8, align 1
  %10 = alloca ptr, align 8
  store ptr %0, ptr %4, align 8
  store i32 %1, ptr %5, align 4
  store ptr %2, ptr %6, align 8
  %11 = load ptr, ptr %4, align 8
  %12 = getelementptr inbounds %class.ThreadDumpToFileDCmd, ptr %11, i32 0, i32 2
  %13 = call noundef ptr @_ZNK12DCmdArgumentIPcE5valueEv(ptr noundef nonnull align 8 dereferenceable(64) %12)
  %14 = icmp ne ptr %13, null
  br i1 %14, label %15, label %20

15:                                               ; preds = %3
  %16 = getelementptr inbounds %class.ThreadDumpToFileDCmd, ptr %11, i32 0, i32 2
  %17 = call noundef ptr @_ZNK12DCmdArgumentIPcE5valueEv(ptr noundef nonnull align 8 dereferenceable(64) %16)
  %18 = call i32 @strcmp(ptr noundef %17, ptr noundef @.str.163) #12
  %19 = icmp eq i32 %18, 0
  br label %20

20:                                               ; preds = %15, %3
  %21 = phi i1 [ false, %3 ], [ %19, %15 ]
  %22 = zext i1 %21 to i8
  store i8 %22, ptr %7, align 1
  %23 = getelementptr inbounds %class.ThreadDumpToFileDCmd, ptr %11, i32 0, i32 3
  %24 = call noundef ptr @_ZNK12DCmdArgumentIPcE5valueEv(ptr noundef nonnull align 8 dereferenceable(64) %23)
  store ptr %24, ptr %8, align 8
  %25 = getelementptr inbounds %class.ThreadDumpToFileDCmd, ptr %11, i32 0, i32 1
  %26 = call noundef zeroext i1 @_ZNK12DCmdArgumentIbE5valueEv(ptr noundef nonnull align 8 dereferenceable(52) %25)
  %27 = zext i1 %26 to i8
  store i8 %27, ptr %9, align 1
  %28 = load i8, ptr %7, align 1
  %29 = trunc i8 %28 to i1
  br i1 %29, label %30, label %32

30:                                               ; preds = %20
  %31 = call noundef ptr @_ZN9vmSymbols22dumpThreadsToJson_nameEv()
  br label %34

32:                                               ; preds = %20
  %33 = call noundef ptr @_ZN9vmSymbols16dumpThreads_nameEv()
  br label %34

34:                                               ; preds = %32, %30
  %35 = phi ptr [ %31, %30 ], [ %33, %32 ]
  store ptr %35, ptr %10, align 8
  %36 = load ptr, ptr %10, align 8
  %37 = call noundef ptr @_ZN9vmSymbols32string_bool_byte_array_signatureEv()
  %38 = load ptr, ptr %8, align 8
  %39 = load i8, ptr %9, align 1
  %40 = trunc i8 %39 to i1
  %41 = load ptr, ptr %6, align 8
  call void @_ZN20ThreadDumpToFileDCmd10dumpToFileEP6SymbolS1_PKcbP10JavaThread(ptr noundef nonnull align 8 dereferenceable(224) %11, ptr noundef %36, ptr noundef %37, ptr noundef %38, i1 noundef zeroext %40, ptr noundef %41)
  %42 = load ptr, ptr %6, align 8
  %43 = call noundef zeroext i1 @_ZNK12ThreadShadow21has_pending_exceptionEv(ptr noundef nonnull align 8 dereferenceable(28) %42)
  br i1 %43, label %44, label %45

44:                                               ; preds = %34
  br label %45

45:                                               ; preds = %44, %34
  ret void
}