; Function Attrs: mustprogress nounwind uwtable
define hidden void @_ZN20ThreadDumpToFileDCmd7executeE10DCmdSourceP10JavaThread(ptr nocapture noundef nonnull readonly align 8 dereferenceable(224) %0, i32 %1, ptr noundef %2) unnamed_addr #0 align 2 {
  %4 = getelementptr inbounds i8, ptr %0, i64 152
  %5 = load ptr, ptr %4, align 8
  %.not = icmp eq ptr %5, null
  br i1 %.not, label %.thread, label %6

6:                                                ; preds = %3
  %7 = tail call i32 @strcmp(ptr noundef nonnull dereferenceable(1) %5, ptr noundef nonnull dereferenceable(5) @.str.163) #18
  %8 = icmp eq i32 %7, 0
  %spec.select = select i1 %8, ptr getelementptr inbounds (i8, ptr @_ZN6Symbol11_vm_symbolsE, i64 9352), ptr getelementptr inbounds (i8, ptr @_ZN6Symbol11_vm_symbolsE, i64 9344)
  br label %.thread

.thread:                                          ; preds = %3, %6
  %.in = phi ptr [ %spec.select, %6 ], [ getelementptr inbounds (i8, ptr @_ZN6Symbol11_vm_symbolsE, i64 9344), %3 ]
  %.in7 = getelementptr inbounds i8, ptr %0, i64 216
  %9 = load ptr, ptr %.in7, align 8
  %.in6.in = getelementptr inbounds i8, ptr %0, i64 91
  %.in6 = load i8, ptr %.in6.in, align 1
  %10 = trunc i8 %.in6 to i1
  %11 = load ptr, ptr %.in, align 8
  %12 = load ptr, ptr getelementptr inbounds (i8, ptr @_ZN6Symbol11_vm_symbolsE, i64 7144), align 8
  tail call void @_ZN20ThreadDumpToFileDCmd10dumpToFileEP6SymbolS1_PKcbP10JavaThread(ptr noundef nonnull align 8 dereferenceable(224) %0, ptr noundef %11, ptr noundef %12, ptr noundef %9, i1 noundef zeroext %10, ptr noundef %2)
  ret void
}